#include <math.h>
#include <stdio.h>
#include <stdlib.h>
#include <string.h>
#include <iostream>
using namespace std;


void delsp(char *c)
{
    int flag = 0, n = 0;
    for (; *(c + n) != '\0'; c++)
    {
        if (*(c + n) == ' ')
        {
            if (*(c + n + 1) == ' ')
            {
                n++;
                *c = *(c + n);
                c--;
            }
        }
        else
        *c = *(c + n);
    }
    *c =  '\0';
}

int main()
{
    char sen[100];
    cin.getline(sen, 100);
    delsp(sen);
    cout << sen;
    return 0;
}
